target datalayout = "e-m:e-p270:32:32-p271:32:32-p272:64:64-i64:64-i128:128-f80:128-n8:16:32:64-S128"
target triple = "x86_64-pc-linux-gnu"

%struct.AVRational = type { i32, i32 }
%struct.AVCodecContext = type { ptr, i32, i32, ptr, i32, i32, ptr, ptr, ptr, i64, i32, i32, ptr, i32, %struct.AVRational, %struct.AVRational, %struct.AVRational, i32, i32, i32, i32, i32, %struct.AVRational, i32, i32, i32, i32, i32, i32, i32, i32, i32, i32, i32, ptr, ptr, i32, float, float, float, float, float, float, float, float, float, i32, i32, i32, i32, i32, i32, i32, i32, i32, i32, i32, i32, ptr, ptr, ptr, i32, i32, i32, i32, i32, i32, i32, i32, i32, i32, %struct.AVChannelLayout, i32, i32, i32, i32, i32, i32, i32, i32, ptr, i32, i32, i32, float, float, i32, i32, i32, i32, i32, ptr, i64, i64, float, float, i32, i32, ptr, ptr, i32, i32, i32, i32, i32, ptr, ptr, ptr, ptr, i32, i32, [8 x i64], i32, i32, i32, i32, i32, i32, i32, ptr, ptr, i32, i32, i32, i32, i32, i32, i32, i32, i32, i32, ptr, ptr, i32, i32, ptr, ptr, ptr, ptr, i32, i32, i64, i32, i32, i64, ptr, i64, ptr, i32, ptr, i32 }
%struct.AVChannelLayout = type { i32, i32, %union.anon.0, ptr }
%union.anon.0 = type { i64 }
%struct.AVFrame = type { [8 x ptr], [8 x i32], ptr, i32, i32, i32, i32, i32, %struct.AVRational, i64, i64, %struct.AVRational, i32, ptr, i32, i32, [8 x ptr], ptr, i32, ptr, i32, i32, i32, i32, i32, i32, i32, i64, ptr, i32, ptr, ptr, i64, i64, i64, i64, ptr, %struct.AVChannelLayout, i64 }

; Function Attrs: nounwind uwtable
define internal void @do_vflip(ptr noundef %0, ptr noundef %1, i32 noundef %2) #0 {
  %4 = alloca ptr, align 8
  %5 = alloca ptr, align 8
  %6 = alloca i32, align 4
  store ptr %0, ptr %4, align 8, !tbaa !4
  store ptr %1, ptr %5, align 8, !tbaa !9
  store i32 %2, ptr %6, align 4, !tbaa !26
  %7 = load i32, ptr %6, align 4, !tbaa !26
  %8 = icmp ne i32 %7, 0
  br i1 %8, label %10, label %9

9:                                                ; preds = %3
  br label %237

10:                                               ; preds = %3
  %11 = load ptr, ptr %5, align 8, !tbaa !9
  %12 = getelementptr inbounds nuw %struct.AVFrame, ptr %11, i32 0, i32 6
  %13 = load i32, ptr %12, align 4, !tbaa !54
  switch i32 %13, label %237 [
    i32 5, label %14
    i32 39, label %61
    i32 37, label %61
    i32 3, label %61
    i32 2, label %61
    i32 6, label %85
    i32 0, label %161
  ]

14:                                               ; preds = %10
  %15 = load ptr, ptr %4, align 8, !tbaa !4
  %16 = getelementptr inbounds nuw %struct.AVCodecContext, ptr %15, i32 0, i32 19
  %17 = load i32, ptr %16, align 4, !tbaa !40
  %18 = sub nsw i32 %17, 1
  %19 = load ptr, ptr %5, align 8, !tbaa !9
  %20 = getelementptr inbounds nuw %struct.AVFrame, ptr %19, i32 0, i32 1
  %21 = getelementptr inbounds [8 x i32], ptr %20, i64 0, i64 1
  %22 = load i32, ptr %21, align 4, !tbaa !26
  %23 = mul nsw i32 %18, %22
  %24 = load ptr, ptr %5, align 8, !tbaa !9
  %25 = getelementptr inbounds nuw %struct.AVFrame, ptr %24, i32 0, i32 0
  %26 = getelementptr inbounds [8 x ptr], ptr %25, i64 0, i64 1
  %27 = load ptr, ptr %26, align 8, !tbaa !23
  %28 = sext i32 %23 to i64
  %29 = getelementptr inbounds i8, ptr %27, i64 %28
  store ptr %29, ptr %26, align 8, !tbaa !23
  %30 = load ptr, ptr %5, align 8, !tbaa !9
  %31 = getelementptr inbounds nuw %struct.AVFrame, ptr %30, i32 0, i32 1
  %32 = getelementptr inbounds [8 x i32], ptr %31, i64 0, i64 1
  %33 = load i32, ptr %32, align 4, !tbaa !26
  %34 = sub nsw i32 0, %33
  %35 = load ptr, ptr %5, align 8, !tbaa !9
  %36 = getelementptr inbounds nuw %struct.AVFrame, ptr %35, i32 0, i32 1
  %37 = getelementptr inbounds [8 x i32], ptr %36, i64 0, i64 1
  store i32 %34, ptr %37, align 4, !tbaa !26
  %38 = load ptr, ptr %4, align 8, !tbaa !4
  %39 = getelementptr inbounds nuw %struct.AVCodecContext, ptr %38, i32 0, i32 19
  %40 = load i32, ptr %39, align 4, !tbaa !40
  %41 = sub nsw i32 %40, 1
  %42 = load ptr, ptr %5, align 8, !tbaa !9
  %43 = getelementptr inbounds nuw %struct.AVFrame, ptr %42, i32 0, i32 1
  %44 = getelementptr inbounds [8 x i32], ptr %43, i64 0, i64 2
  %45 = load i32, ptr %44, align 8, !tbaa !26
  %46 = mul nsw i32 %41, %45
  %47 = load ptr, ptr %5, align 8, !tbaa !9
  %48 = getelementptr inbounds nuw %struct.AVFrame, ptr %47, i32 0, i32 0
  %49 = getelementptr inbounds [8 x ptr], ptr %48, i64 0, i64 2
  %50 = load ptr, ptr %49, align 8, !tbaa !23
  %51 = sext i32 %46 to i64
  %52 = getelementptr inbounds i8, ptr %50, i64 %51
  store ptr %52, ptr %49, align 8, !tbaa !23
  %53 = load ptr, ptr %5, align 8, !tbaa !9
  %54 = getelementptr inbounds nuw %struct.AVFrame, ptr %53, i32 0, i32 1
  %55 = getelementptr inbounds [8 x i32], ptr %54, i64 0, i64 2
  %56 = load i32, ptr %55, align 8, !tbaa !26
  %57 = sub nsw i32 0, %56
  %58 = load ptr, ptr %5, align 8, !tbaa !9
  %59 = getelementptr inbounds nuw %struct.AVFrame, ptr %58, i32 0, i32 1
  %60 = getelementptr inbounds [8 x i32], ptr %59, i64 0, i64 2
  store i32 %57, ptr %60, align 8, !tbaa !26
  br label %61

61:                                               ; preds = %10, %10, %10, %10, %14
  %62 = load ptr, ptr %4, align 8, !tbaa !4
  %63 = getelementptr inbounds nuw %struct.AVCodecContext, ptr %62, i32 0, i32 19
  %64 = load i32, ptr %63, align 4, !tbaa !40
  %65 = sub nsw i32 %64, 1
  %66 = load ptr, ptr %5, align 8, !tbaa !9
  %67 = getelementptr inbounds nuw %struct.AVFrame, ptr %66, i32 0, i32 1
  %68 = getelementptr inbounds [8 x i32], ptr %67, i64 0, i64 0
  %69 = load i32, ptr %68, align 8, !tbaa !26
  %70 = mul nsw i32 %65, %69
  %71 = load ptr, ptr %5, align 8, !tbaa !9
  %72 = getelementptr inbounds nuw %struct.AVFrame, ptr %71, i32 0, i32 0
  %73 = getelementptr inbounds [8 x ptr], ptr %72, i64 0, i64 0
  %74 = load ptr, ptr %73, align 8, !tbaa !23
  %75 = sext i32 %70 to i64
  %76 = getelementptr inbounds i8, ptr %74, i64 %75
  store ptr %76, ptr %73, align 8, !tbaa !23
  %77 = load ptr, ptr %5, align 8, !tbaa !9
  %78 = getelementptr inbounds nuw %struct.AVFrame, ptr %77, i32 0, i32 1
  %79 = getelementptr inbounds [8 x i32], ptr %78, i64 0, i64 0
  %80 = load i32, ptr %79, align 8, !tbaa !26
  %81 = sub nsw i32 0, %80
  %82 = load ptr, ptr %5, align 8, !tbaa !9
  %83 = getelementptr inbounds nuw %struct.AVFrame, ptr %82, i32 0, i32 1
  %84 = getelementptr inbounds [8 x i32], ptr %83, i64 0, i64 0
  store i32 %81, ptr %84, align 8, !tbaa !26
  br label %237

85:                                               ; preds = %10
  %86 = load ptr, ptr %4, align 8, !tbaa !4
  %87 = getelementptr inbounds nuw %struct.AVCodecContext, ptr %86, i32 0, i32 19
  %88 = load i32, ptr %87, align 4, !tbaa !40
  %89 = sub nsw i32 %88, 1
  %90 = load ptr, ptr %5, align 8, !tbaa !9
  %91 = getelementptr inbounds nuw %struct.AVFrame, ptr %90, i32 0, i32 1
  %92 = getelementptr inbounds [8 x i32], ptr %91, i64 0, i64 0
  %93 = load i32, ptr %92, align 8, !tbaa !26
  %94 = mul nsw i32 %89, %93
  %95 = load ptr, ptr %5, align 8, !tbaa !9
  %96 = getelementptr inbounds nuw %struct.AVFrame, ptr %95, i32 0, i32 0
  %97 = getelementptr inbounds [8 x ptr], ptr %96, i64 0, i64 0
  %98 = load ptr, ptr %97, align 8, !tbaa !23
  %99 = sext i32 %94 to i64
  %100 = getelementptr inbounds i8, ptr %98, i64 %99
  store ptr %100, ptr %97, align 8, !tbaa !23
  %101 = load ptr, ptr %5, align 8, !tbaa !9
  %102 = getelementptr inbounds nuw %struct.AVFrame, ptr %101, i32 0, i32 1
  %103 = getelementptr inbounds [8 x i32], ptr %102, i64 0, i64 0
  %104 = load i32, ptr %103, align 8, !tbaa !26
  %105 = sub nsw i32 0, %104
  %106 = load ptr, ptr %5, align 8, !tbaa !9
  %107 = getelementptr inbounds nuw %struct.AVFrame, ptr %106, i32 0, i32 1
  %108 = getelementptr inbounds [8 x i32], ptr %107, i64 0, i64 0
  store i32 %105, ptr %108, align 8, !tbaa !26
  %109 = load ptr, ptr %4, align 8, !tbaa !4
  %110 = getelementptr inbounds nuw %struct.AVCodecContext, ptr %109, i32 0, i32 19
  %111 = load i32, ptr %110, align 4, !tbaa !40
  %112 = add nsw i32 %111, 4
  %113 = sub nsw i32 %112, 1
  %114 = ashr i32 %113, 2
  %115 = sub nsw i32 %114, 1
  %116 = load ptr, ptr %5, align 8, !tbaa !9
  %117 = getelementptr inbounds nuw %struct.AVFrame, ptr %116, i32 0, i32 1
  %118 = getelementptr inbounds [8 x i32], ptr %117, i64 0, i64 1
  %119 = load i32, ptr %118, align 4, !tbaa !26
  %120 = mul nsw i32 %115, %119
  %121 = load ptr, ptr %5, align 8, !tbaa !9
  %122 = getelementptr inbounds nuw %struct.AVFrame, ptr %121, i32 0, i32 0
  %123 = getelementptr inbounds [8 x ptr], ptr %122, i64 0, i64 1
  %124 = load ptr, ptr %123, align 8, !tbaa !23
  %125 = sext i32 %120 to i64
  %126 = getelementptr inbounds i8, ptr %124, i64 %125
  store ptr %126, ptr %123, align 8, !tbaa !23
  %127 = load ptr, ptr %5, align 8, !tbaa !9
  %128 = getelementptr inbounds nuw %struct.AVFrame, ptr %127, i32 0, i32 1
  %129 = getelementptr inbounds [8 x i32], ptr %128, i64 0, i64 1
  %130 = load i32, ptr %129, align 4, !tbaa !26
  %131 = sub nsw i32 0, %130
  %132 = load ptr, ptr %5, align 8, !tbaa !9
  %133 = getelementptr inbounds nuw %struct.AVFrame, ptr %132, i32 0, i32 1
  %134 = getelementptr inbounds [8 x i32], ptr %133, i64 0, i64 1
  store i32 %131, ptr %134, align 4, !tbaa !26
  %135 = load ptr, ptr %4, align 8, !tbaa !4
  %136 = getelementptr inbounds nuw %struct.AVCodecContext, ptr %135, i32 0, i32 19
  %137 = load i32, ptr %136, align 4, !tbaa !40
  %138 = add nsw i32 %137, 4
  %139 = sub nsw i32 %138, 1
  %140 = ashr i32 %139, 2
  %141 = sub nsw i32 %140, 1
  %142 = load ptr, ptr %5, align 8, !tbaa !9
  %143 = getelementptr inbounds nuw %struct.AVFrame, ptr %142, i32 0, i32 1
  %144 = getelementptr inbounds [8 x i32], ptr %143, i64 0, i64 2
  %145 = load i32, ptr %144, align 8, !tbaa !26
  %146 = mul nsw i32 %141, %145
  %147 = load ptr, ptr %5, align 8, !tbaa !9
  %148 = getelementptr inbounds nuw %struct.AVFrame, ptr %147, i32 0, i32 0
  %149 = getelementptr inbounds [8 x ptr], ptr %148, i64 0, i64 2
  %150 = load ptr, ptr %149, align 8, !tbaa !23
  %151 = sext i32 %146 to i64
  %152 = getelementptr inbounds i8, ptr %150, i64 %151
  store ptr %152, ptr %149, align 8, !tbaa !23
  %153 = load ptr, ptr %5, align 8, !tbaa !9
  %154 = getelementptr inbounds nuw %struct.AVFrame, ptr %153, i32 0, i32 1
  %155 = getelementptr inbounds [8 x i32], ptr %154, i64 0, i64 2
  %156 = load i32, ptr %155, align 8, !tbaa !26
  %157 = sub nsw i32 0, %156
  %158 = load ptr, ptr %5, align 8, !tbaa !9
  %159 = getelementptr inbounds nuw %struct.AVFrame, ptr %158, i32 0, i32 1
  %160 = getelementptr inbounds [8 x i32], ptr %159, i64 0, i64 2
  store i32 %157, ptr %160, align 8, !tbaa !26
  br label %237

161:                                              ; preds = %10
  %162 = load ptr, ptr %4, align 8, !tbaa !4
  %163 = getelementptr inbounds nuw %struct.AVCodecContext, ptr %162, i32 0, i32 19
  %164 = load i32, ptr %163, align 4, !tbaa !40
  %165 = sub nsw i32 %164, 1
  %166 = load ptr, ptr %5, align 8, !tbaa !9
  %167 = getelementptr inbounds nuw %struct.AVFrame, ptr %166, i32 0, i32 1
  %168 = getelementptr inbounds [8 x i32], ptr %167, i64 0, i64 0
  %169 = load i32, ptr %168, align 8, !tbaa !26
  %170 = mul nsw i32 %165, %169
  %171 = load ptr, ptr %5, align 8, !tbaa !9
  %172 = getelementptr inbounds nuw %struct.AVFrame, ptr %171, i32 0, i32 0
  %173 = getelementptr inbounds [8 x ptr], ptr %172, i64 0, i64 0
  %174 = load ptr, ptr %173, align 8, !tbaa !23
  %175 = sext i32 %170 to i64
  %176 = getelementptr inbounds i8, ptr %174, i64 %175
  store ptr %176, ptr %173, align 8, !tbaa !23
  %177 = load ptr, ptr %5, align 8, !tbaa !9
  %178 = getelementptr inbounds nuw %struct.AVFrame, ptr %177, i32 0, i32 1
  %179 = getelementptr inbounds [8 x i32], ptr %178, i64 0, i64 0
  %180 = load i32, ptr %179, align 8, !tbaa !26
  %181 = sub nsw i32 0, %180
  %182 = load ptr, ptr %5, align 8, !tbaa !9
  %183 = getelementptr inbounds nuw %struct.AVFrame, ptr %182, i32 0, i32 1
  %184 = getelementptr inbounds [8 x i32], ptr %183, i64 0, i64 0
  store i32 %181, ptr %184, align 8, !tbaa !26
  %185 = load ptr, ptr %4, align 8, !tbaa !4
  %186 = getelementptr inbounds nuw %struct.AVCodecContext, ptr %185, i32 0, i32 19
  %187 = load i32, ptr %186, align 4, !tbaa !40
  %188 = add nsw i32 %187, 2
  %189 = sub nsw i32 %188, 1
  %190 = ashr i32 %189, 1
  %191 = sub nsw i32 %190, 1
  %192 = load ptr, ptr %5, align 8, !tbaa !9
  %193 = getelementptr inbounds nuw %struct.AVFrame, ptr %192, i32 0, i32 1
  %194 = getelementptr inbounds [8 x i32], ptr %193, i64 0, i64 1
  %195 = load i32, ptr %194, align 4, !tbaa !26
  %196 = mul nsw i32 %191, %195
  %197 = load ptr, ptr %5, align 8, !tbaa !9
  %198 = getelementptr inbounds nuw %struct.AVFrame, ptr %197, i32 0, i32 0
  %199 = getelementptr inbounds [8 x ptr], ptr %198, i64 0, i64 1
  %200 = load ptr, ptr %199, align 8, !tbaa !23
  %201 = sext i32 %196 to i64
  %202 = getelementptr inbounds i8, ptr %200, i64 %201
  store ptr %202, ptr %199, align 8, !tbaa !23
  %203 = load ptr, ptr %5, align 8, !tbaa !9
  %204 = getelementptr inbounds nuw %struct.AVFrame, ptr %203, i32 0, i32 1
  %205 = getelementptr inbounds [8 x i32], ptr %204, i64 0, i64 1
  %206 = load i32, ptr %205, align 4, !tbaa !26
  %207 = sub nsw i32 0, %206
  %208 = load ptr, ptr %5, align 8, !tbaa !9
  %209 = getelementptr inbounds nuw %struct.AVFrame, ptr %208, i32 0, i32 1
  %210 = getelementptr inbounds [8 x i32], ptr %209, i64 0, i64 1
  store i32 %207, ptr %210, align 4, !tbaa !26
  %211 = load ptr, ptr %4, align 8, !tbaa !4
  %212 = getelementptr inbounds nuw %struct.AVCodecContext, ptr %211, i32 0, i32 19
  %213 = load i32, ptr %212, align 4, !tbaa !40
  %214 = add nsw i32 %213, 2
  %215 = sub nsw i32 %214, 1
  %216 = ashr i32 %215, 1
  %217 = sub nsw i32 %216, 1
  %218 = load ptr, ptr %5, align 8, !tbaa !9
  %219 = getelementptr inbounds nuw %struct.AVFrame, ptr %218, i32 0, i32 1
  %220 = getelementptr inbounds [8 x i32], ptr %219, i64 0, i64 2
  %221 = load i32, ptr %220, align 8, !tbaa !26
  %222 = mul nsw i32 %217, %221
  %223 = load ptr, ptr %5, align 8, !tbaa !9
  %224 = getelementptr inbounds nuw %struct.AVFrame, ptr %223, i32 0, i32 0
  %225 = getelementptr inbounds [8 x ptr], ptr %224, i64 0, i64 2
  %226 = load ptr, ptr %225, align 8, !tbaa !23
  %227 = sext i32 %222 to i64
  %228 = getelementptr inbounds i8, ptr %226, i64 %227
  store ptr %228, ptr %225, align 8, !tbaa !23
  %229 = load ptr, ptr %5, align 8, !tbaa !9
  %230 = getelementptr inbounds nuw %struct.AVFrame, ptr %229, i32 0, i32 1
  %231 = getelementptr inbounds [8 x i32], ptr %230, i64 0, i64 2
  %232 = load i32, ptr %231, align 8, !tbaa !26
  %233 = sub nsw i32 0, %232
  %234 = load ptr, ptr %5, align 8, !tbaa !9
  %235 = getelementptr inbounds nuw %struct.AVFrame, ptr %234, i32 0, i32 1
  %236 = getelementptr inbounds [8 x i32], ptr %235, i64 0, i64 2
  store i32 %233, ptr %236, align 8, !tbaa !26
  br label %237

237:                                              ; preds = %9, %10, %161, %85, %61
  ret void
}