; Function Attrs: mustprogress nofree norecurse nosync nounwind willreturn memory(argmem: readwrite) uwtable
define internal fastcc void @do_vflip(ptr noundef readonly captures(none) %0, ptr noundef captures(none) %1, i32 noundef range(i32 0, 2) %2) unnamed_addr #4 {
  %.not = icmp eq i32 %2, 0
  br i1 %.not, label %110, label %4

4:                                                ; preds = %3
  %5 = getelementptr inbounds nuw i8, ptr %1, i64 116
  %6 = load i32, ptr %5, align 4, !tbaa !48
  switch i32 %6, label %110 [
    i32 5, label %7
    i32 39, label %29
    i32 37, label %29
    i32 3, label %29
    i32 2, label %29
    i32 6, label %40
    i32 0, label %75
  ]

7:                                                ; preds = %4
  %8 = getelementptr inbounds nuw i8, ptr %0, i64 116
  %9 = load i32, ptr %8, align 4, !tbaa !31
  %10 = add nsw i32 %9, -1
  %11 = getelementptr inbounds nuw i8, ptr %1, i64 68
  %12 = load i32, ptr %11, align 4, !tbaa !34
  %13 = mul nsw i32 %10, %12
  %14 = getelementptr inbounds nuw i8, ptr %1, i64 8
  %15 = load ptr, ptr %14, align 8, !tbaa !33
  %16 = sext i32 %13 to i64
  %17 = getelementptr inbounds i8, ptr %15, i64 %16
  store ptr %17, ptr %14, align 8, !tbaa !33
  %18 = sub nsw i32 0, %12
  store i32 %18, ptr %11, align 4, !tbaa !34
  %19 = load i32, ptr %8, align 4, !tbaa !31
  %20 = add nsw i32 %19, -1
  %21 = getelementptr inbounds nuw i8, ptr %1, i64 72
  %22 = load i32, ptr %21, align 8, !tbaa !34
  %23 = mul nsw i32 %20, %22
  %24 = getelementptr inbounds nuw i8, ptr %1, i64 16
  %25 = load ptr, ptr %24, align 8, !tbaa !33
  %26 = sext i32 %23 to i64
  %27 = getelementptr inbounds i8, ptr %25, i64 %26
  store ptr %27, ptr %24, align 8, !tbaa !33
  %28 = sub nsw i32 0, %22
  store i32 %28, ptr %21, align 8, !tbaa !34
  br label %29

29:                                               ; preds = %7, %4, %4, %4, %4
  %30 = getelementptr inbounds nuw i8, ptr %0, i64 116
  %31 = load i32, ptr %30, align 4, !tbaa !31
  %32 = add nsw i32 %31, -1
  %33 = getelementptr inbounds nuw i8, ptr %1, i64 64
  %34 = load i32, ptr %33, align 8, !tbaa !34
  %35 = mul nsw i32 %32, %34
  %36 = load ptr, ptr %1, align 8, !tbaa !33
  %37 = sext i32 %35 to i64
  %38 = getelementptr inbounds i8, ptr %36, i64 %37
  store ptr %38, ptr %1, align 8, !tbaa !33
  %39 = sub nsw i32 0, %34
  store i32 %39, ptr %33, align 8, !tbaa !34
  br label %110

40:                                               ; preds = %4
  %41 = getelementptr inbounds nuw i8, ptr %0, i64 116
  %42 = load i32, ptr %41, align 4, !tbaa !31
  %43 = add nsw i32 %42, -1
  %44 = getelementptr inbounds nuw i8, ptr %1, i64 64
  %45 = load i32, ptr %44, align 8, !tbaa !34
  %46 = mul nsw i32 %43, %45
  %47 = load ptr, ptr %1, align 8, !tbaa !33
  %48 = sext i32 %46 to i64
  %49 = getelementptr inbounds i8, ptr %47, i64 %48
  store ptr %49, ptr %1, align 8, !tbaa !33
  %50 = sub nsw i32 0, %45
  store i32 %50, ptr %44, align 8, !tbaa !34
  %51 = load i32, ptr %41, align 4, !tbaa !31
  %52 = add nsw i32 %51, 3
  %53 = ashr i32 %52, 2
  %54 = add nsw i32 %53, -1
  %55 = getelementptr inbounds nuw i8, ptr %1, i64 68
  %56 = load i32, ptr %55, align 4, !tbaa !34
  %57 = mul nsw i32 %54, %56
  %58 = getelementptr inbounds nuw i8, ptr %1, i64 8
  %59 = load ptr, ptr %58, align 8, !tbaa !33
  %60 = sext i32 %57 to i64
  %61 = getelementptr inbounds i8, ptr %59, i64 %60
  store ptr %61, ptr %58, align 8, !tbaa !33
  %62 = sub nsw i32 0, %56
  store i32 %62, ptr %55, align 4, !tbaa !34
  %63 = load i32, ptr %41, align 4, !tbaa !31
  %64 = add nsw i32 %63, 3
  %65 = ashr i32 %64, 2
  %66 = add nsw i32 %65, -1
  %67 = getelementptr inbounds nuw i8, ptr %1, i64 72
  %68 = load i32, ptr %67, align 8, !tbaa !34
  %69 = mul nsw i32 %66, %68
  %70 = getelementptr inbounds nuw i8, ptr %1, i64 16
  %71 = load ptr, ptr %70, align 8, !tbaa !33
  %72 = sext i32 %69 to i64
  %73 = getelementptr inbounds i8, ptr %71, i64 %72
  store ptr %73, ptr %70, align 8, !tbaa !33
  %74 = sub nsw i32 0, %68
  store i32 %74, ptr %67, align 8, !tbaa !34
  br label %110

75:                                               ; preds = %4
  %76 = getelementptr inbounds nuw i8, ptr %0, i64 116
  %77 = load i32, ptr %76, align 4, !tbaa !31
  %78 = add nsw i32 %77, -1
  %79 = getelementptr inbounds nuw i8, ptr %1, i64 64
  %80 = load i32, ptr %79, align 8, !tbaa !34
  %81 = mul nsw i32 %78, %80
  %82 = load ptr, ptr %1, align 8, !tbaa !33
  %83 = sext i32 %81 to i64
  %84 = getelementptr inbounds i8, ptr %82, i64 %83
  store ptr %84, ptr %1, align 8, !tbaa !33
  %85 = sub nsw i32 0, %80
  store i32 %85, ptr %79, align 8, !tbaa !34
  %86 = load i32, ptr %76, align 4, !tbaa !31
  %87 = add nsw i32 %86, 1
  %88 = ashr i32 %87, 1
  %89 = add nsw i32 %88, -1
  %90 = getelementptr inbounds nuw i8, ptr %1, i64 68
  %91 = load i32, ptr %90, align 4, !tbaa !34
  %92 = mul nsw i32 %89, %91
  %93 = getelementptr inbounds nuw i8, ptr %1, i64 8
  %94 = load ptr, ptr %93, align 8, !tbaa !33
  %95 = sext i32 %92 to i64
  %96 = getelementptr inbounds i8, ptr %94, i64 %95
  store ptr %96, ptr %93, align 8, !tbaa !33
  %97 = sub nsw i32 0, %91
  store i32 %97, ptr %90, align 4, !tbaa !34
  %98 = load i32, ptr %76, align 4, !tbaa !31
  %99 = add nsw i32 %98, 1
  %100 = ashr i32 %99, 1
  %101 = add nsw i32 %100, -1
  %102 = getelementptr inbounds nuw i8, ptr %1, i64 72
  %103 = load i32, ptr %102, align 8, !tbaa !34
  %104 = mul nsw i32 %101, %103
  %105 = getelementptr inbounds nuw i8, ptr %1, i64 16
  %106 = load ptr, ptr %105, align 8, !tbaa !33
  %107 = sext i32 %104 to i64
  %108 = getelementptr inbounds i8, ptr %106, i64 %107
  store ptr %108, ptr %105, align 8, !tbaa !33
  %109 = sub nsw i32 0, %103
  store i32 %109, ptr %102, align 8, !tbaa !34
  br label %110

110:                                              ; preds = %3, %75, %40, %29, %4
  ret void
}